; Function Attrs: mustprogress uwtable
define internal fastcc noundef nonnull ptr @"_ZZN13sentencepiece11PieceToByteESt17basic_string_viewIcSt11char_traitsIcEEENK3$_0clB5cxx11Ev"() unnamed_addr #3 align 2 personality ptr @__gxx_personality_v0 {
  %1 = alloca i8, align 1
  %2 = alloca %"class.std::__cxx11::basic_string", align 8
  %3 = tail call noalias noundef nonnull dereferenceable(56) ptr @_Znwm(i64 noundef 56) #24
  %4 = getelementptr inbounds i8, ptr %3, i64 32
  tail call void @llvm.memset.p0.i64(ptr noundef nonnull align 16 dereferenceable(56) %4, i8 0, i64 16, i1 false)
  %5 = getelementptr inbounds i8, ptr %3, i64 48
  store ptr %5, ptr %3, align 8
  %6 = getelementptr inbounds i8, ptr %3, i64 8
  store i64 1, ptr %6, align 8
  %7 = getelementptr inbounds i8, ptr %3, i64 16
  %8 = getelementptr inbounds i8, ptr %3, i64 32
  tail call void @llvm.memset.p0.i64(ptr noundef nonnull align 8 dereferenceable(16) %7, i8 0, i64 16, i1 false)
  store float 1.000000e+00, ptr %8, align 8
  %9 = getelementptr inbounds i8, ptr %3, i64 40
  tail call void @llvm.memset.p0.i64(ptr noundef nonnull align 8 dereferenceable(16) %9, i8 0, i64 16, i1 false)
  br label %10

10:                                               ; preds = %0, %_ZNSt13unordered_mapINSt7__cxx1112basic_stringIcSt11char_traitsIcESaIcEEEhSt4hashIS5_ESt8equal_toIS5_ESaISt4pairIKS5_hEEEixEOS5_.exit
  %.01 = phi i32 [ 0, %0 ], [ %13, %_ZNSt13unordered_mapINSt7__cxx1112basic_stringIcSt11char_traitsIcESaIcEEEhSt4hashIS5_ESt8equal_toIS5_ESaISt4pairIKS5_hEEEixEOS5_.exit ]
  %11 = trunc nuw i32 %.01 to i8
  call void @llvm.lifetime.start.p0(i64 1, ptr nonnull %1)
  store i8 %11, ptr %1, align 1, !noalias !36
  call void @_ZN4absl9StrFormatIJhEEENSt7__cxx1112basic_stringIcSt11char_traitsIcESaIcEEEPKcDpRKT_(ptr dead_on_unwind nonnull writable sret(%"class.std::__cxx11::basic_string") align 8 %2, ptr noundef nonnull @.str.13, ptr noundef nonnull align 1 dereferenceable(1) %1)
  call void @llvm.lifetime.end.p0(i64 1, ptr nonnull %1)
  %12 = invoke noundef nonnull align 1 dereferenceable(1) ptr @_ZNSt8__detail9_Map_baseINSt7__cxx1112basic_stringIcSt11char_traitsIcESaIcEEESt4pairIKS6_hESaIS9_ENS_10_Select1stESt8equal_toIS6_ESt4hashIS6_ENS_18_Mod_range_hashingENS_20_Default_ranged_hashENS_20_Prime_rehash_policyENS_17_Hashtable_traitsILb1ELb0ELb1EEELb1EEixEOS6_(ptr noundef nonnull align 1 dereferenceable(1) %3, ptr noundef nonnull align 8 dereferenceable(32) %2)
          to label %_ZNSt13unordered_mapINSt7__cxx1112basic_stringIcSt11char_traitsIcESaIcEEEhSt4hashIS5_ESt8equal_toIS5_ESaISt4pairIKS5_hEEEixEOS5_.exit unwind label %14

_ZNSt13unordered_mapINSt7__cxx1112basic_stringIcSt11char_traitsIcESaIcEEEhSt4hashIS5_ESt8equal_toIS5_ESaISt4pairIKS5_hEEEixEOS5_.exit: ; preds = %10
  store i8 %11, ptr %12, align 1
  call void @_ZNSt7__cxx1112basic_stringIcSt11char_traitsIcESaIcEED1Ev(ptr noundef nonnull align 8 dereferenceable(32) %2) #21
  %13 = add nuw nsw i32 %.01, 1
  %exitcond.not = icmp eq i32 %13, 256
  br i1 %exitcond.not, label %16, label %10, !llvm.loop !39

14:                                               ; preds = %10
  %15 = landingpad { ptr, i32 }
          cleanup
  call void @_ZNSt7__cxx1112basic_stringIcSt11char_traitsIcESaIcEED1Ev(ptr noundef nonnull align 8 dereferenceable(32) %2) #21
  resume { ptr, i32 } %15

16:                                               ; preds = %_ZNSt13unordered_mapINSt7__cxx1112basic_stringIcSt11char_traitsIcESaIcEEEhSt4hashIS5_ESt8equal_toIS5_ESaISt4pairIKS5_hEEEixEOS5_.exit
  ret ptr %3
}